Certificate:
    Data:
        Version: 3 (0x2)
        Serial Number:
            12:ce:63:bd:90:f5:ab:de:6d:7f:d7:3e:f3:e6:bb
        Signature Algorithm: sha256WithRSAEncryption
        Issuer: CN=Veilid Test CA
        Validity
            Not Before: Nov 22 13:52:16 2021 GMT
            Not After : Feb 25 13:52:16 2024 GMT
        Subject: CN=Veilid Test Certificate
        Subject Public Key Info:
            Public Key Algorithm: rsaEncryption
                RSA Public-Key: (2048 bit)
                Modulus:
                    00:cb:2e:7a:47:81:be:6f:6b:53:37:51:c1:50:68:
                    5a:44:3d:ba:b9:9b:78:40:84:35:d4:0e:e8:41:a6:
                    0e:0a:b9:34:ae:97:a3:37:3e:81:ed:6c:0f:f8:8a:
                    8b:0b:1a:ed:06:97:57:6d:49:a5:ec:b4:c4:d8:6d:
                    d2:57:c3:87:89:99:ee:b0:d7:c5:82:a1:dc:d5:98:
                    b3:ef:10:da:c0:5c:38:a2:bb:15:3e:0e:5e:bc:a0:
                    cd:a1:f0:07:67:bb:57:3f:89:cc:72:4f:bb:c0:a7:
                    ed:ad:15:07:61:c2:b4:21:73:39:00:9b:8f:aa:04:
                    1b:c4:9d:d4:00:44:87:b1:79:b4:e1:4e:01:3c:ee:
                    a4:bb:f9:ad:5d:88:41:03:b4:bf:df:bf:71:24:ee:
                    0b:69:59:55:dd:43:d1:91:04:de:98:9c:54:f2:ee:
                    63:78:fe:76:19:bf:e6:5d:d6:58:81:3c:1b:02:3d:
                    5d:cc:70:4a:c1:84:06:f6:1a:db:16:b0:e0:30:b0:
                    3a:85:41:48:a1:88:c5:38:04:7b:03:c4:86:f0:da:
                    1a:ff:bc:d1:ac:7f:cd:0c:e8:5a:42:5e:43:7f:0d:
                    61:5d:41:67:0f:b8:07:47:21:93:44:b2:ab:fa:d8:
                    69:bb:b9:6d:a1:56:6d:23:54:aa:49:67:e7:57:c6:
                    e9:c7
                Exponent: 65537 (0x10001)
        X509v3 extensions:
            X509v3 Basic Constraints: 
                CA:FALSE
            X509v3 Subject Key Identifier: 
                70:ED:B0:96:71:33:43:16:EF:32:FF:69:11:C9:F0:02:3F:6C:81:88
            X509v3 Authority Key Identifier: 
                keyid:5D:7F:8D:AF:1A:56:D3:F4:CA:3D:D3:6D:EF:50:11:F7:64:99:6F:02
                DirName:/CN=Veilid Test CA
                serial:22:7A:2E:68:7C:DF:7B:81:85:1A:50:98:16:62:22:D0:0B:D6:1C:4A

            X509v3 Extended Key Usage: 
                TLS Web Server Authentication
            X509v3 Key Usage: 
                Digital Signature, Key Encipherment
            X509v3 Subject Alternative Name: 
                DNS:Veilid Test Certificate
    Signature Algorithm: sha256WithRSAEncryption
         b8:fc:ac:62:d6:95:af:09:db:24:7d:82:2c:02:e1:d0:7b:f5:
         69:03:a4:42:55:c6:0d:2a:f1:9d:0e:c4:9b:78:40:7d:0d:7d:
         ec:66:f6:c4:6d:06:d0:5b:58:de:ba:e6:67:ea:af:41:a3:87:
         b4:37:8b:a8:1f:51:ae:70:e0:0d:f5:51:0a:7a:b3:b3:1d:d1:
         77:92:63:35:ae:50:9e:04:3d:04:6e:f1:60:c8:e3:8f:1f:75:
         47:05:27:a0:ff:c5:1b:30:68:b2:f9:5b:e6:f2:81:0f:9b:f2:
         e8:8c:9d:b6:57:b2:c1:29:e7:d0:d0:88:b3:ba:8e:78:2e:ef:
         ce:03:a3:12:fa:b4:e9:4e:1f:de:1a:cb:77:72:6b:71:98:02:
         37:d2:b4:02:f0:2c:08:67:ca:75:0d:af:81:bf:f8:57:f8:d9:
         4a:93:4f:db:3c:e1:af:3e:ab:9c:fe:87:f0:3a:01:21:6a:5c:
         99:83:e3:03:47:98:15:23:24:b3:ee:29:27:f4:f1:34:c1:e4:
         f8:39:5a:92:da:c7:08:dc:71:87:1c:ff:67:e7:ef:24:bc:34:
         e3:4e:e0:16:12:84:60:d4:7f:a2:c0:5b:85:a9:c5:ef:78:0b:
         c3:64:cb:b4:05:eb:51:e5:c1:0f:60:da:5c:98:08:bf:5d:b9:
         1d:33:a7:26
-----BEGIN CERTIFICATE-----
MIIDjjCCAnagAwIBAgIPEs5jvZD1q95tf9c+8+a7MA0GCSqGSIb3DQEBCwUAMBkx
FzAVBgNVBAMMDlZlaWxpZCBUZXN0IENBMB4XDTIxMTEyMjEzNTIxNloXDTI0MDIy
NTEzNTIxNlowIjEgMB4GA1UEAwwXVmVpbGlkIFRlc3QgQ2VydGlmaWNhdGUwggEi
MA0GCSqGSIb3DQEBAQUAA4IBDwAwggEKAoIBAQDLLnpHgb5va1M3UcFQaFpEPbq5
m3hAhDXUDuhBpg4KuTSul6M3PoHtbA/4iosLGu0Gl1dtSaXstMTYbdJXw4eJme6w
18WCodzVmLPvENrAXDiiuxU+Dl68oM2h8Adnu1c/icxyT7vAp+2tFQdhwrQhczkA
m4+qBBvEndQARIexebThTgE87qS7+a1diEEDtL/fv3Ek7gtpWVXdQ9GRBN6YnFTy
7mN4/nYZv+Zd1liBPBsCPV3McErBhAb2GtsWsOAwsDqFQUihiMU4BHsDxIbw2hr/
vNGsf80M6FpCXkN/DWFdQWcPuAdHIZNEsqv62Gm7uW2hVm0jVKpJZ+dXxunHAgMB
AAGjgckwgcYwCQYDVR0TBAIwADAdBgNVHQ4EFgQUcO2wlnEzQxbvMv9pEcnwAj9s
gYgwVAYDVR0jBE0wS4AUXX+NrxpW0/TKPdNt71AR92SZbwKhHaQbMBkxFzAVBgNV
BAMMDlZlaWxpZCBUZXN0IENBghQiei5ofN97gYUaUJgWYiLQC9YcSjATBgNVHSUE
DDAKBggrBgEFBQcDATALBgNVHQ8EBAMCBaAwIgYDVR0RBBswGYIXVmVpbGlkIFRl
c3QgQ2VydGlmaWNhdGUwDQYJKoZIhvcNAQELBQADggEBALj8rGLWla8J2yR9giwC
4dB79WkDpEJVxg0q8Z0OxJt4QH0Nfexm9sRtBtBbWN665mfqr0Gjh7Q3i6gfUa5w
4A31UQp6s7Md0XeSYzWuUJ4EPQRu8WDI448fdUcFJ6D/xRswaLL5W+bygQ+b8uiM
nbZXssEp59DQiLO6jngu784DoxL6tOlOH94ay3dya3GYAjfStALwLAhnynUNr4G/
+Ff42UqTT9s84a8+q5z+h/A6ASFqXJmD4wNHmBUjJLPuKSf08TTB5Pg5WpLaxwjc
cYcc/2fn7yS8NONO4BYShGDUf6LAW4Wpxe94C8Nky7QF61HlwQ9g2lyYCL9duR0z
pyY=
-----END CERTIFICATE-----
